target datalayout = "e-m:e-p270:32:32-p271:32:32-p272:64:64-i64:64-i128:128-f80:128-n8:16:32:64-S128"
target triple = "x86_64-pc-linux-gnu"

%struct.slurm_step_id_msg = type { i64, i32, i32, i32 }
%struct.slurm_selected_step_t = type { ptr, i32, i32, %struct.slurm_step_id_msg }

@.str.2 = private unnamed_addr constant [22 x i8] c"slurm_protocol_pack.c\00", align 1
@__func__.slurm_unpack_selected_step = private unnamed_addr constant [27 x i8] c"slurm_unpack_selected_step\00", align 1

; Function Attrs: nounwind uwtable
define dso_local i32 @slurm_unpack_selected_step(ptr noundef %0, i16 noundef zeroext %1, ptr noundef %2) #0 {
  %4 = alloca i32, align 4
  %5 = alloca ptr, align 8
  %6 = alloca i16, align 2
  %7 = alloca ptr, align 8
  %8 = alloca ptr, align 8
  %9 = alloca ptr, align 8
  %10 = alloca i32, align 4
  %11 = alloca i32, align 4
  %12 = alloca i32, align 4
  store ptr %0, ptr %5, align 8
  store i16 %1, ptr %6, align 2
  store ptr %2, ptr %7, align 8
  call void @llvm.lifetime.start.p0(i64 8, ptr %8) #6
  %13 = call ptr @slurm_xcalloc(i64 noundef 1, i64 noundef 40, i1 noundef zeroext true, i1 noundef zeroext false, ptr noundef @.str.2, i32 noundef 14392, ptr noundef @__func__.slurm_unpack_selected_step)
  store ptr %13, ptr %8, align 8
  %14 = load ptr, ptr %8, align 8
  %15 = load ptr, ptr %5, align 8
  store ptr %14, ptr %15, align 8
  %16 = load ptr, ptr %8, align 8
  %17 = getelementptr inbounds nuw %struct.slurm_selected_step_t, ptr %16, i32 0, i32 1
  store i32 -2, ptr %17, align 8
  %18 = load i16, ptr %6, align 2
  %19 = zext i16 %18 to i32
  %20 = icmp sge i32 %19, 10752
  br i1 %20, label %21, label %115

21:                                               ; preds = %3
  %22 = load ptr, ptr %8, align 8
  %23 = getelementptr inbounds nuw %struct.slurm_selected_step_t, ptr %22, i32 0, i32 3
  %24 = load ptr, ptr %7, align 8
  %25 = load i16, ptr %6, align 2
  %26 = call i32 @unpack_step_id_members(ptr noundef %23, ptr noundef %24, i16 noundef zeroext %25)
  %27 = icmp ne i32 %26, 0
  br i1 %27, label %28, label %29

28:                                               ; preds = %21
  br label %151

29:                                               ; preds = %21
  br label %30

30:                                               ; preds = %29
  %31 = load ptr, ptr %8, align 8
  %32 = getelementptr inbounds nuw %struct.slurm_selected_step_t, ptr %31, i32 0, i32 1
  %33 = load ptr, ptr %7, align 8
  %34 = call i32 @unpack32(ptr noundef %32, ptr noundef %33)
  %35 = icmp ne i32 %34, 0
  br i1 %35, label %36, label %37

36:                                               ; preds = %30
  br label %151

37:                                               ; preds = %30
  br label %38

38:                                               ; preds = %37
  br label %39

39:                                               ; preds = %38
  br label %40

40:                                               ; preds = %39
  %41 = load ptr, ptr %8, align 8
  %42 = getelementptr inbounds nuw %struct.slurm_selected_step_t, ptr %41, i32 0, i32 2
  %43 = load ptr, ptr %7, align 8
  %44 = call i32 @unpack32(ptr noundef %42, ptr noundef %43)
  %45 = icmp ne i32 %44, 0
  br i1 %45, label %46, label %47

46:                                               ; preds = %40
  br label %151

47:                                               ; preds = %40
  br label %48

48:                                               ; preds = %47
  br label %49

49:                                               ; preds = %48
  br label %50

50:                                               ; preds = %49
  call void @llvm.lifetime.start.p0(i64 8, ptr %9) #6
  store ptr null, ptr %9, align 8
  call void @llvm.lifetime.start.p0(i64 4, ptr %10) #6
  br label %51

51:                                               ; preds = %50
  %52 = load ptr, ptr %7, align 8
  %53 = call i32 @unpack32(ptr noundef %10, ptr noundef %52)
  %54 = icmp ne i32 %53, 0
  br i1 %54, label %55, label %56

55:                                               ; preds = %51
  store i32 2, ptr %12, align 4
  br label %110

56:                                               ; preds = %51
  br label %57

57:                                               ; preds = %56
  br label %58

58:                                               ; preds = %57
  %59 = load i32, ptr %10, align 4
  %60 = icmp ne i32 %59, -2
  br i1 %60, label %61, label %106

61:                                               ; preds = %58
  br label %62

62:                                               ; preds = %61
  call void @llvm.lifetime.start.p0(i64 4, ptr %11) #6
  %63 = load ptr, ptr %7, align 8
  %64 = call i32 @unpackstr_xmalloc_chooser(ptr noundef %9, ptr noundef %11, ptr noundef %63)
  %65 = icmp ne i32 %64, 0
  br i1 %65, label %66, label %67

66:                                               ; preds = %62
  store i32 2, ptr %12, align 4
  br label %68

67:                                               ; preds = %62
  store i32 0, ptr %12, align 4
  br label %68

68:                                               ; preds = %66, %67
  call void @llvm.lifetime.end.p0(i64 4, ptr %11) #6
  %69 = load i32, ptr %12, align 4
  switch i32 %69, label %110 [
    i32 0, label %70
  ]

70:                                               ; preds = %68
  br label %71

71:                                               ; preds = %70
  br label %72

72:                                               ; preds = %71
  %73 = load i32, ptr %10, align 4
  %74 = icmp ne i32 %73, 0
  br i1 %74, label %75, label %102

75:                                               ; preds = %72
  %76 = load i32, ptr %10, align 4
  %77 = zext i32 %76 to i64
  %78 = call ptr @bit_alloc(i64 noundef %77)
  %79 = load ptr, ptr %8, align 8
  %80 = getelementptr inbounds nuw %struct.slurm_selected_step_t, ptr %79, i32 0, i32 0
  store ptr %78, ptr %80, align 8
  %81 = load ptr, ptr %8, align 8
  %82 = getelementptr inbounds nuw %struct.slurm_selected_step_t, ptr %81, i32 0, i32 0
  %83 = load ptr, ptr %82, align 8
  %84 = load ptr, ptr %9, align 8
  %85 = call i32 @bit_unfmt_hexmask(ptr noundef %83, ptr noundef %84)
  %86 = icmp ne i32 %85, 0
  br i1 %86, label %87, label %101

87:                                               ; preds = %75
  br label %88

88:                                               ; preds = %87
  %89 = load ptr, ptr %8, align 8
  %90 = getelementptr inbounds nuw %struct.slurm_selected_step_t, ptr %89, i32 0, i32 0
  %91 = load ptr, ptr %90, align 8
  %92 = icmp ne ptr %91, null
  br i1 %92, label %93, label %96

93:                                               ; preds = %88
  %94 = load ptr, ptr %8, align 8
  %95 = getelementptr inbounds nuw %struct.slurm_selected_step_t, ptr %94, i32 0, i32 0
  call void @slurm_bit_free(ptr noundef %95)
  br label %96

96:                                               ; preds = %93, %88
  %97 = load ptr, ptr %8, align 8
  %98 = getelementptr inbounds nuw %struct.slurm_selected_step_t, ptr %97, i32 0, i32 0
  store ptr null, ptr %98, align 8
  br label %99

99:                                               ; preds = %96
  br label %100

100:                                              ; preds = %99
  call void @slurm_xfree(ptr noundef %9)
  store i32 2, ptr %12, align 4
  br label %110

101:                                              ; preds = %75
  br label %105

102:                                              ; preds = %72
  %103 = load ptr, ptr %8, align 8
  %104 = getelementptr inbounds nuw %struct.slurm_selected_step_t, ptr %103, i32 0, i32 0
  store ptr null, ptr %104, align 8
  br label %105

105:                                              ; preds = %102, %101
  call void @slurm_xfree(ptr noundef %9)
  br label %109

106:                                              ; preds = %58
  %107 = load ptr, ptr %8, align 8
  %108 = getelementptr inbounds nuw %struct.slurm_selected_step_t, ptr %107, i32 0, i32 0
  store ptr null, ptr %108, align 8
  br label %109

109:                                              ; preds = %106, %105
  store i32 0, ptr %12, align 4
  br label %110

110:                                              ; preds = %100, %55, %109, %68
  call void @llvm.lifetime.end.p0(i64 4, ptr %10) #6
  call void @llvm.lifetime.end.p0(i64 8, ptr %9) #6
  %111 = load i32, ptr %12, align 4
  switch i32 %111, label %154 [
    i32 0, label %112
    i32 2, label %151
  ]

112:                                              ; preds = %110
  br label %113

113:                                              ; preds = %112
  br label %114

114:                                              ; preds = %113
  br label %150

115:                                              ; preds = %3
  %116 = load i16, ptr %6, align 2
  %117 = zext i16 %116 to i32
  %118 = icmp sge i32 %117, 10240
  br i1 %118, label %119, label %148

119:                                              ; preds = %115
  %120 = load ptr, ptr %8, align 8
  %121 = getelementptr inbounds nuw %struct.slurm_selected_step_t, ptr %120, i32 0, i32 3
  %122 = load ptr, ptr %7, align 8
  %123 = load i16, ptr %6, align 2
  %124 = call i32 @unpack_step_id_members(ptr noundef %121, ptr noundef %122, i16 noundef zeroext %123)
  %125 = icmp ne i32 %124, 0
  br i1 %125, label %126, label %127

126:                                              ; preds = %119
  br label %151

127:                                              ; preds = %119
  br label %128

128:                                              ; preds = %127
  %129 = load ptr, ptr %8, align 8
  %130 = getelementptr inbounds nuw %struct.slurm_selected_step_t, ptr %129, i32 0, i32 1
  %131 = load ptr, ptr %7, align 8
  %132 = call i32 @unpack32(ptr noundef %130, ptr noundef %131)
  %133 = icmp ne i32 %132, 0
  br i1 %133, label %134, label %135

134:                                              ; preds = %128
  br label %151

135:                                              ; preds = %128
  br label %136

136:                                              ; preds = %135
  br label %137

137:                                              ; preds = %136
  br label %138

138:                                              ; preds = %137
  %139 = load ptr, ptr %8, align 8
  %140 = getelementptr inbounds nuw %struct.slurm_selected_step_t, ptr %139, i32 0, i32 2
  %141 = load ptr, ptr %7, align 8
  %142 = call i32 @unpack32(ptr noundef %140, ptr noundef %141)
  %143 = icmp ne i32 %142, 0
  br i1 %143, label %144, label %145

144:                                              ; preds = %138
  br label %151

145:                                              ; preds = %138
  br label %146

146:                                              ; preds = %145
  br label %147

147:                                              ; preds = %146
  br label %149

148:                                              ; preds = %115
  br label %151

149:                                              ; preds = %147
  br label %150

150:                                              ; preds = %149, %114
  store i32 0, ptr %4, align 4
  store i32 1, ptr %12, align 4
  br label %154

151:                                              ; preds = %110, %148, %144, %134, %126, %46, %36, %28
  %152 = load ptr, ptr %8, align 8
  call void @slurm_destroy_selected_step(ptr noundef %152)
  %153 = load ptr, ptr %5, align 8
  store ptr null, ptr %153, align 8
  store i32 -1, ptr %4, align 4
  store i32 1, ptr %12, align 4
  br label %154

154:                                              ; preds = %151, %150, %110
  call void @llvm.lifetime.end.p0(i64 8, ptr %8) #6
  %155 = load i32, ptr %4, align 4
  ret i32 %155
}