; Function Attrs: nounwind uwtable
define dso_local range(i32 -1, 1) i32 @slurm_unpack_selected_step(ptr noundef writeonly captures(none) initializes((0, 8)) %0, i16 noundef zeroext %1, ptr noundef %2) local_unnamed_addr #0 {
  %4 = alloca ptr, align 8
  %5 = alloca i32, align 4
  %6 = alloca i32, align 4
  %7 = tail call ptr @slurm_xcalloc(i64 noundef 1, i64 noundef 40, i1 noundef zeroext true, i1 noundef zeroext false, ptr noundef nonnull @.str.2, i32 noundef 14392, ptr noundef nonnull @__func__.slurm_unpack_selected_step) #7
  store ptr %7, ptr %0, align 8
  %8 = getelementptr inbounds nuw i8, ptr %7, i64 8
  store i32 -2, ptr %8, align 8
  %9 = icmp ugt i16 %1, 10751
  br i1 %9, label %10, label %38

10:                                               ; preds = %3
  %11 = getelementptr inbounds nuw i8, ptr %7, i64 16
  %12 = tail call i32 @unpack_step_id_members(ptr noundef nonnull %11, ptr noundef %2, i16 noundef zeroext %1)
  %.not37 = icmp eq i32 %12, 0
  br i1 %.not37, label %13, label %48

13:                                               ; preds = %10
  %14 = tail call i32 @unpack32(ptr noundef nonnull %8, ptr noundef %2) #7
  %.not38 = icmp eq i32 %14, 0
  br i1 %.not38, label %15, label %48

15:                                               ; preds = %13
  %16 = getelementptr inbounds nuw i8, ptr %7, i64 12
  %17 = tail call i32 @unpack32(ptr noundef nonnull %16, ptr noundef %2) #7
  %.not39 = icmp eq i32 %17, 0
  br i1 %.not39, label %18, label %48

18:                                               ; preds = %15
  call void @llvm.lifetime.start.p0(i64 8, ptr nonnull %4) #7
  store ptr null, ptr %4, align 8
  call void @llvm.lifetime.start.p0(i64 4, ptr nonnull %5) #7
  %19 = call i32 @unpack32(ptr noundef nonnull %5, ptr noundef %2) #7
  %.not40 = icmp eq i32 %19, 0
  br i1 %.not40, label %20, label %.sink.split

20:                                               ; preds = %18
  %21 = load i32, ptr %5, align 4
  %.not41 = icmp eq i32 %21, -2
  br i1 %.not41, label %37, label %22

22:                                               ; preds = %20
  call void @llvm.lifetime.start.p0(i64 4, ptr nonnull %6) #7
  %23 = call i32 @unpackstr_xmalloc_chooser(ptr noundef nonnull %4, ptr noundef nonnull %6, ptr noundef %2) #7
  %.not42 = icmp eq i32 %23, 0
  call void @llvm.lifetime.end.p0(i64 4, ptr nonnull %6) #7
  br i1 %.not42, label %24, label %.sink.split

24:                                               ; preds = %22
  %25 = load i32, ptr %5, align 4
  %.not43 = icmp eq i32 %25, 0
  br i1 %.not43, label %35, label %26

26:                                               ; preds = %24
  %27 = zext i32 %25 to i64
  %28 = call ptr @bit_alloc(i64 noundef %27) #7
  store ptr %28, ptr %7, align 8
  %29 = load ptr, ptr %4, align 8
  %30 = call i32 @bit_unfmt_hexmask(ptr noundef %28, ptr noundef %29) #7
  %.not44 = icmp eq i32 %30, 0
  br i1 %.not44, label %36, label %31

31:                                               ; preds = %26
  %32 = load ptr, ptr %7, align 8
  %.not45 = icmp eq ptr %32, null
  br i1 %.not45, label %34, label %33

33:                                               ; preds = %31
  call void @slurm_bit_free(ptr noundef nonnull %7) #7
  br label %34

34:                                               ; preds = %33, %31
  store ptr null, ptr %7, align 8
  call void @slurm_xfree(ptr noundef nonnull %4) #7
  br label %.sink.split

35:                                               ; preds = %24
  store ptr null, ptr %7, align 8
  br label %36

36:                                               ; preds = %26, %35
  call void @slurm_xfree(ptr noundef nonnull %4) #7
  br label %.thread

37:                                               ; preds = %20
  store ptr null, ptr %7, align 8
  br label %.thread

.thread:                                          ; preds = %37, %36
  call void @llvm.lifetime.end.p0(i64 4, ptr nonnull %5) #7
  call void @llvm.lifetime.end.p0(i64 8, ptr nonnull %4) #7
  br label %49

38:                                               ; preds = %3
  %39 = icmp samesign ugt i16 %1, 10239
  br i1 %39, label %40, label %48

40:                                               ; preds = %38
  %41 = getelementptr inbounds nuw i8, ptr %7, i64 16
  %42 = tail call i32 @unpack_step_id_members(ptr noundef nonnull %41, ptr noundef %2, i16 noundef zeroext %1)
  %.not = icmp eq i32 %42, 0
  br i1 %.not, label %43, label %48

43:                                               ; preds = %40
  %44 = tail call i32 @unpack32(ptr noundef nonnull %8, ptr noundef %2) #7
  %.not35 = icmp eq i32 %44, 0
  br i1 %.not35, label %45, label %48

45:                                               ; preds = %43
  %46 = getelementptr inbounds nuw i8, ptr %7, i64 12
  %47 = tail call i32 @unpack32(ptr noundef nonnull %46, ptr noundef %2) #7
  %.not36 = icmp eq i32 %47, 0
  br i1 %.not36, label %49, label %48

.sink.split:                                      ; preds = %22, %18, %34
  call void @llvm.lifetime.end.p0(i64 4, ptr nonnull %5) #7
  call void @llvm.lifetime.end.p0(i64 8, ptr nonnull %4) #7
  br label %48

48:                                               ; preds = %.sink.split, %38, %45, %43, %40, %15, %13, %10
  call void @slurm_destroy_selected_step(ptr noundef nonnull %7) #7
  store ptr null, ptr %0, align 8
  br label %49

49:                                               ; preds = %.thread, %45, %48
  %.032 = phi i32 [ -1, %48 ], [ 0, %45 ], [ 0, %.thread ]
  ret i32 %.032
}